target datalayout = "e-m:e-p270:32:32-p271:32:32-p272:64:64-i64:64-i128:128-f80:128-n8:16:32:64-S128"
target triple = "x86_64-pc-linux-gnu"

%class.QToolBar = type { %class.QWidget }
%class.QWidget = type { %class.QObject, %class.QPaintDevice, ptr }
%class.QObject = type { ptr, %class.QScopedPointer }
%class.QScopedPointer = type { ptr }
%class.QPaintDevice = type { ptr, i16, ptr }
%class.QFrame = type { %class.QWidget }
%class.MLRenderingParametersFrame.base = type <{ %class.QFrame, i32 }>
%class.MLRenderingOnOffToolbar = type { %class.QToolBar, i32, ptr, ptr, ptr }
%class.MLRenderingSelectionParametersFrame = type { %class.MLRenderingParametersFrame.base, ptr, ptr }

; Function Attrs: mustprogress uwtable
define void @_ZN23MLRenderingOnOffToolbar27setAccordingToRenderingDataERK15MLRenderingData(ptr noundef nonnull align 8 dereferenceable(80) %0, ptr noundef nonnull align 8 dereferenceable(40) %1) #5 align 2 {
  %3 = alloca ptr, align 8
  %4 = alloca ptr, align 8
  store ptr %0, ptr %3, align 8
  store ptr %1, ptr %4, align 8
  %5 = load ptr, ptr %3, align 8
  %6 = getelementptr inbounds %class.MLRenderingOnOffToolbar, ptr %5, i32 0, i32 3
  %7 = load ptr, ptr %6, align 8
  %8 = getelementptr inbounds %class.MLRenderingOnOffToolbar, ptr %5, i32 0, i32 2
  %9 = load ptr, ptr %8, align 8
  %10 = load ptr, ptr %4, align 8
  %11 = load ptr, ptr %9, align 8
  %12 = getelementptr inbounds ptr, ptr %11, i64 14
  %13 = load ptr, ptr %12, align 8
  %14 = call noundef zeroext i1 %13(ptr noundef nonnull align 8 dereferenceable(16) %9, ptr noundef nonnull align 8 dereferenceable(40) %10)
  call void @_ZN7QAction10setCheckedEb(ptr noundef nonnull align 8 dereferenceable(16) %7, i1 noundef zeroext %14)
  %15 = getelementptr inbounds %class.MLRenderingOnOffToolbar, ptr %5, i32 0, i32 4
  %16 = load ptr, ptr %15, align 8
  %17 = getelementptr inbounds %class.MLRenderingOnOffToolbar, ptr %5, i32 0, i32 2
  %18 = load ptr, ptr %17, align 8
  %19 = load ptr, ptr %4, align 8
  %20 = load ptr, ptr %18, align 8
  %21 = getelementptr inbounds ptr, ptr %20, i64 14
  %22 = load ptr, ptr %21, align 8
  %23 = call noundef zeroext i1 %22(ptr noundef nonnull align 8 dereferenceable(16) %18, ptr noundef nonnull align 8 dereferenceable(40) %19)
  %24 = xor i1 %23, true
  call void @_ZN7QAction10setCheckedEb(ptr noundef nonnull align 8 dereferenceable(16) %16, i1 noundef zeroext %24)
  ret void
}

; Function Attrs: mustprogress uwtable
define void @_ZN35MLRenderingSelectionParametersFrame48setPrimitiveButtonStatesAccordingToRenderingDataERK15MLRenderingData(ptr noundef nonnull align 8 dereferenceable(72) %0, ptr noundef nonnull align 8 dereferenceable(40) %1) unnamed_addr #5 align 2 {
  %3 = alloca ptr, align 8
  %4 = alloca ptr, align 8
  store ptr %0, ptr %3, align 8
  store ptr %1, ptr %4, align 8
  %5 = load ptr, ptr %3, align 8
  %6 = getelementptr inbounds %class.MLRenderingSelectionParametersFrame, ptr %5, i32 0, i32 1
  %7 = load ptr, ptr %6, align 8
  %8 = load ptr, ptr %4, align 8
  call void @_ZN23MLRenderingOnOffToolbar27setAccordingToRenderingDataERK15MLRenderingData(ptr noundef nonnull align 8 dereferenceable(80) %7, ptr noundef nonnull align 8 dereferenceable(40) %8)
  %9 = getelementptr inbounds %class.MLRenderingSelectionParametersFrame, ptr %5, i32 0, i32 2
  %10 = load ptr, ptr %9, align 8
  %11 = load ptr, ptr %4, align 8
  call void @_ZN23MLRenderingOnOffToolbar27setAccordingToRenderingDataERK15MLRenderingData(ptr noundef nonnull align 8 dereferenceable(80) %10, ptr noundef nonnull align 8 dereferenceable(40) %11)
  ret void
}