; Function Attrs: mustprogress uwtable
define void @_ZN35MLRenderingSelectionParametersFrame48setPrimitiveButtonStatesAccordingToRenderingDataERK15MLRenderingData(ptr nocapture noundef nonnull readonly align 8 dereferenceable(72) %0, ptr noundef nonnull align 8 dereferenceable(40) %1) unnamed_addr #3 align 2 {
  %3 = getelementptr inbounds i8, ptr %0, i64 56
  %4 = load ptr, ptr %3, align 8
  %5 = getelementptr inbounds i8, ptr %4, i64 64
  %6 = load ptr, ptr %5, align 8
  %7 = getelementptr inbounds i8, ptr %4, i64 56
  %8 = load ptr, ptr %7, align 8
  %9 = load ptr, ptr %8, align 8
  %10 = getelementptr inbounds i8, ptr %9, i64 112
  %11 = load ptr, ptr %10, align 8
  %12 = tail call noundef zeroext i1 %11(ptr noundef nonnull align 8 dereferenceable(16) %8, ptr noundef nonnull align 8 dereferenceable(40) %1)
  tail call void @_ZN7QAction10setCheckedEb(ptr noundef nonnull align 8 dereferenceable(16) %6, i1 noundef zeroext %12)
  %13 = getelementptr inbounds i8, ptr %4, i64 72
  %14 = load ptr, ptr %13, align 8
  %15 = load ptr, ptr %7, align 8
  %16 = load ptr, ptr %15, align 8
  %17 = getelementptr inbounds i8, ptr %16, i64 112
  %18 = load ptr, ptr %17, align 8
  %19 = tail call noundef zeroext i1 %18(ptr noundef nonnull align 8 dereferenceable(16) %15, ptr noundef nonnull align 8 dereferenceable(40) %1)
  %20 = xor i1 %19, true
  tail call void @_ZN7QAction10setCheckedEb(ptr noundef nonnull align 8 dereferenceable(16) %14, i1 noundef zeroext %20)
  %21 = getelementptr inbounds i8, ptr %0, i64 64
  %22 = load ptr, ptr %21, align 8
  %23 = getelementptr inbounds i8, ptr %22, i64 64
  %24 = load ptr, ptr %23, align 8
  %25 = getelementptr inbounds i8, ptr %22, i64 56
  %26 = load ptr, ptr %25, align 8
  %27 = load ptr, ptr %26, align 8
  %28 = getelementptr inbounds i8, ptr %27, i64 112
  %29 = load ptr, ptr %28, align 8
  %30 = tail call noundef zeroext i1 %29(ptr noundef nonnull align 8 dereferenceable(16) %26, ptr noundef nonnull align 8 dereferenceable(40) %1)
  tail call void @_ZN7QAction10setCheckedEb(ptr noundef nonnull align 8 dereferenceable(16) %24, i1 noundef zeroext %30)
  %31 = getelementptr inbounds i8, ptr %22, i64 72
  %32 = load ptr, ptr %31, align 8
  %33 = load ptr, ptr %25, align 8
  %34 = load ptr, ptr %33, align 8
  %35 = getelementptr inbounds i8, ptr %34, i64 112
  %36 = load ptr, ptr %35, align 8
  %37 = tail call noundef zeroext i1 %36(ptr noundef nonnull align 8 dereferenceable(16) %33, ptr noundef nonnull align 8 dereferenceable(40) %1)
  %38 = xor i1 %37, true
  tail call void @_ZN7QAction10setCheckedEb(ptr noundef nonnull align 8 dereferenceable(16) %32, i1 noundef zeroext %38)
  ret void
}